(lp0
(lp1
F0.0
aF0.0
aI00
aa(lp2
F0.7821723252011547
aF4.938441702975689
aI00
aa(lp3
F7.853240137066632
aF12.009509514841165
aI00
aa(lp4
F22.6685652459937
aF14.356026490444627
aI00
aa(lp5
F40.48869572976106
aF5.2762164956536886
aI01
aa(lp6
F0.0
aF0.0
aI00
aa(lp7
F-1.5450849718747377
aF-4.755282581475767
aI00
aa(lp8
F-9.635254915624214
aF-10.633135104400498
aI00
aa(lp9
F-24.635254915624216
aF-10.633135104400498
aI00
aa(lp10
F-40.81559480312316
aF1.1225699414489654
aI01
aa(lp11
F0.0
aF0.0
aI00
aa(lp12
F-3.4732918522949854
aF3.596699001693257
aI00
aa(lp13
F-4.1708565897362355
aF13.572339504291499
aI00
aa(lp14
F4.645922194650863
aF25.707594419915708
aI00
aa(lp15
F24.05183672017079
aF30.546032331909057
aI00
aa(lp16
F46.52168787764995
aF19.58675366218212
aI01
aa(lp17
F0.0
aF0.0
aI00
aa(lp18
F-4.999238475781956
aF-0.08726203218641596
aI00
aa(lp19
F-11.427114572647348
aF7.573182399003366
aI00
aa(lp20
F-8.564979641999173
aF22.297590150718328
aI00
aa(lp21
F9.093972215179367
aF31.68702140643614
aI00
aa(lp22
F32.10659355149038
aF21.918743194204296
aI00
aa(lp23
F40.375714226000355
aF-6.919107683945267
aI01
aa(lp24
F0.0
aF0.0
aI00
aa(lp25
F4.871850323926176
aF-1.1247552717193268
aI00
aa(lp26
F-1.94813327669881
aF-8.43829228791103
aI00
aa(lp27
F-6.333708847539862
aF5.906279051534499
aI00
aa(lp28
F13.153692448164842
aF1.407257964657207
aI00
aa(lp29
F-3.8962665533976075
aF-16.876584575822065
aI00
aa(lp30
F-12.667417695079733
aF11.812558103068984
aI00
aa(lp31
F21.435534572403498
aF3.9392712010337485
aI00
aa(lp32
F-5.844399830096393
aF-25.314876863733097
aI00
aa(lp33
F-19.00112654261961
aF17.718837154603463
aI00
aa(lp34
F29.717376696642155
aF6.471284437410308
aI00
aa(lp35
F-7.792533106795155
aF-33.75316915164413
aI00
aa(lp36
F-25.334835390159483
aF23.625116206137925
aI00
aa(lp37
F37.999218820880806
aF9.003297673786875
aI01
aa(lp38
F0.0
aF0.0
aI00
aa(lp39
F2.723195175075133
aF-4.193352839727122
aI00
aa(lp40
F-2.723195175075134
aF4.19335283972712
aI00
aa(lp41
F5.446390350150269
aF-8.386705679454241
aI00
aa(lp42
F-5.446390350150271
aF8.386705679454238
aI00
aa(lp43
F8.169585525225406
aF-12.580058519181357
aI00
aa(lp44
F-8.16958552522541
aF12.580058519181353
aI00
aa(lp45
F10.892780700300547
aF-16.773411358908472
aI00
aa(lp46
F-10.89278070030055
aF16.773411358908465
aI00
aa(lp47
F13.615975875375687
aF-20.966764198635584
aI00
aa(lp48
F-13.615975875375694
aF20.966764198635577
aI00
aa(lp49
F16.33917105045083
aF-25.160117038362696
aI00
aa(lp50
F-16.339171050450844
aF25.16011703836269
aI00
aa(lp51
F19.062366225525977
aF-29.3534698780898
aI00
aa(lp52
F-19.06236622552599
aF29.3534698780898
aI00
aa(lp53
F21.785561400601125
aF-33.54682271781691
aI00
aa(lp54
F-21.78556140060114
aF33.546822717816895
aI00
aa(lp55
F24.508756575676273
aF-37.74017555754402
aI01
aa(lp56
F0.0
aF0.0
aI00
aa(lp57
F-4.53153893518325
aF-2.1130913087034964
aI00
aa(lp58
F-8.757721552590244
aF6.949986561663004
aI00
aa(lp59
F4.836895252959508
aF13.289260487773495
aI00
aa(lp60
F13.289260487773497
aF-4.836895252959506
aI00
aa(lp61
F-9.368434188142754
aF-15.402351796476994
aI00
aa(lp62
F-22.04698204036374
aF11.78688181462251
aI00
aa(lp63
F9.673790505919012
aF26.578520975546994
aI00
aa(lp64
F26.578520975546997
aF-9.673790505919008
aI00
aa(lp65
F-14.205329441102254
aF-28.691612284250496
aI00
aa(lp66
F-35.33624252813725
aF16.623777067582004
aI00
aa(lp67
F14.510685758878502
aF39.8677814633205
aI01
aa(lp68
F0.0
aF0.0
aI00
aa(lp69
F-1.8730329670795602
aF4.635919272833937
aI00
aa(lp70
F4.283581786177022
aF12.516026808901156
aI00
aa(lp71
F19.137602817300575
aF10.428430294500178
aI00
aa(lp72
F26.62973468561882
aF-8.115246796835567
aI00
aa(lp73
F11.238197802477373
aF-27.815515637003625
aI00
aa(lp74
F-18.469844259769744
aF-23.64032260820168
aI00
aa(lp75
F-31.581075029326694
aF8.811112301635873
aI00
aa(lp76
F-6.954616016300388
aF40.33154244590478
aI01
aa(lp77
F0.0
aF0.0
aI00
aa(lp78
F-4.667902132486009
aF-1.7918397477265022
aI00
aa(lp79
F-13.328156170330395
aF3.2081602522734958
aI00
aa(lp80
F-15.674673145933863
aF18.023485361200557
aI00
aa(lp81
F-2.2920610187567068
aF32.886381870748444
aI00
aa(lp82
F22.67367735010764
aF31.57798296467486
aI00
aa(lp83
F40.30723491888184
aF7.307473133426452
aI01
aa(lp84
F0.0
aF0.0
aI00
aa(lp85
F4.095760221444959
aF2.8678821817552302
aI00
aa(lp86
F14.094237173008871
aF2.6933581173823944
aI00
aa(lp87
F26.073769823718266
aF-6.333867229898332
aI00
aa(lp88
F31.921203918173
aF-25.459962349159042
aI00
aa(lp89
F23.78200005674408
aF-49.09792673914197
aI01
aa.